target datalayout = "e-m:e-p270:32:32-p271:32:32-p272:64:64-i64:64-i128:128-f80:128-n8:16:32:64-S128"
target triple = "x86_64-pc-linux-gnu"

@custom_ext_error = internal global i32 0, align 4

; Function Attrs: nounwind uwtable
define internal i32 @custom_ext_0_cli_add_cb(ptr noundef %0, i32 noundef %1, ptr noundef %2, ptr noundef %3, ptr noundef %4, ptr noundef %5) #0 {
  %7 = alloca ptr, align 8
  %8 = alloca i32, align 4
  %9 = alloca ptr, align 8
  %10 = alloca ptr, align 8
  %11 = alloca ptr, align 8
  %12 = alloca ptr, align 8
  store ptr %0, ptr %7, align 8, !tbaa !17
  store i32 %1, ptr %8, align 4, !tbaa !4
  store ptr %2, ptr %9, align 8, !tbaa !8
  store ptr %3, ptr %10, align 8, !tbaa !61
  store ptr %4, ptr %11, align 8, !tbaa !59
  store ptr %5, ptr %12, align 8, !tbaa !53
  %13 = load i32, ptr %8, align 4, !tbaa !4
  %14 = icmp ne i32 %13, 1000
  br i1 %14, label %15, label %16

15:                                               ; preds = %6
  store i32 1, ptr @custom_ext_error, align 4, !tbaa !4
  br label %16

16:                                               ; preds = %15, %6
  ret i32 0
}