; Function Attrs: mustprogress nofree norecurse nosync nounwind willreturn memory(write, argmem: none, inaccessiblemem: none) uwtable
define internal noundef i32 @custom_ext_0_cli_add_cb(ptr readnone captures(none) %0, i32 noundef %1, ptr readnone captures(none) %2, ptr readnone captures(none) %3, ptr readnone captures(none) %4, ptr readnone captures(none) %5) #11 {
  %.not = icmp eq i32 %1, 1000
  br i1 %.not, label %8, label %7

7:                                                ; preds = %6
  store i1 true, ptr @custom_ext_error, align 4
  br label %8

8:                                                ; preds = %7, %6
  ret i32 0
}